target datalayout = "e-m:e-p270:32:32-p271:32:32-p272:64:64-i64:64-i128:128-f80:128-n8:16:32:64-S128"
target triple = "x86_64-pc-linux-gnu"

@_ZN6casadi4Fmu2C1ERNS_19DeserializingStreamE = unnamed_addr alias void (ptr, ptr), ptr @_ZN6casadi4Fmu2C2ERNS_19DeserializingStreamE

; Function Attrs: mustprogress uwtable
define noundef ptr @_ZN6casadi4Fmu211deserializeERNS_19DeserializingStreamE(ptr noundef nonnull align 8 dereferenceable(41) %0) #7 align 2 personality ptr @__gxx_personality_v0 {
  %2 = alloca ptr, align 8
  %3 = alloca ptr, align 8
  %4 = alloca ptr, align 8
  %5 = alloca i32, align 4
  store ptr %0, ptr %2, align 8, !tbaa !227
  call void @llvm.lifetime.start.p0(i64 8, ptr %3) #3
  %6 = call noalias noundef nonnull ptr @_Znwm(i64 noundef 1400) #24
  %7 = load ptr, ptr %2, align 8, !tbaa !227
  invoke void @_ZN6casadi4Fmu2C1ERNS_19DeserializingStreamE(ptr noundef nonnull align 8 dereferenceable(1400) %6, ptr noundef nonnull align 8 dereferenceable(41) %7)
          to label %8 unwind label %11

8:                                                ; preds = %1
  store ptr %6, ptr %3, align 8, !tbaa !3
  %9 = load ptr, ptr %3, align 8, !tbaa !3
  call void @_ZN6casadi11FmuInternal8finalizeEv(ptr noundef nonnull align 8 dereferenceable(744) %9)
  %10 = load ptr, ptr %3, align 8, !tbaa !3
  call void @llvm.lifetime.end.p0(i64 8, ptr %3) #3
  ret ptr %10

11:                                               ; preds = %1
  %12 = landingpad { ptr, i32 }
          cleanup
  %13 = extractvalue { ptr, i32 } %12, 0
  store ptr %13, ptr %4, align 8
  %14 = extractvalue { ptr, i32 } %12, 1
  store i32 %14, ptr %5, align 4
  call void @_ZdlPvm(ptr noundef %6, i64 noundef 1400) #22
  call void @llvm.lifetime.end.p0(i64 8, ptr %3) #3
  br label %15

15:                                               ; preds = %11
  %16 = load ptr, ptr %4, align 8
  %17 = load i32, ptr %5, align 4
  %18 = insertvalue { ptr, i32 } poison, ptr %16, 0
  %19 = insertvalue { ptr, i32 } %18, i32 %17, 1
  resume { ptr, i32 } %19
}