; Function Attrs: mustprogress uwtable
define noundef nonnull ptr @_ZN6casadi4Fmu211deserializeERNS_19DeserializingStreamE(ptr noundef nonnull align 8 dereferenceable(41) %0) local_unnamed_addr #8 align 2 personality ptr @__gxx_personality_v0 {
  %2 = tail call noalias noundef nonnull dereferenceable(1400) ptr @_Znwm(i64 noundef 1400) #31
  invoke void @_ZN6casadi4Fmu2C1ERNS_19DeserializingStreamE(ptr noundef nonnull align 8 dereferenceable(1400) %2, ptr noundef nonnull align 8 dereferenceable(41) %0)
          to label %3 unwind label %4

3:                                                ; preds = %1
  tail call void @_ZN6casadi11FmuInternal8finalizeEv(ptr noundef nonnull align 8 dereferenceable(744) %2)
  ret ptr %2

4:                                                ; preds = %1
  %5 = landingpad { ptr, i32 }
          cleanup
  tail call void @_ZdlPvm(ptr noundef nonnull %2, i64 noundef 1400) #28
  resume { ptr, i32 } %5
}